target datalayout = "e-m:e-p270:32:32-p271:32:32-p272:64:64-i64:64-i128:128-f80:128-n8:16:32:64-S128"
target triple = "x86_64-pc-linux-gnu"

@hf_homeplug_av_reserved = internal global i32 0, align 4
@hf_homeplug_av_nw_info_sta_info = internal global i32 0, align 4
@hf_homeplug_av_nw_info_sta_da = internal global i32 0, align 4
@hf_homeplug_av_nw_info_sta_tei = internal global i32 0, align 4
@hf_homeplug_av_nw_info_sta_bda = internal global i32 0, align 4
@hf_homeplug_av10_nw_info_sta_phy_dr_tx = internal global i32 0, align 4
@hf_homeplug_av10_nw_info_sta_phy_dr_rx = internal global i32 0, align 4
@hf_homeplug_av11_nw_info_sta_phy_dr_tx = internal global i32 0, align 4
@hf_homeplug_av11_nw_info_sta_phy_dr_rx = internal global i32 0, align 4
@hf_homeplug_av11_nw_info_sta_cpling_tx = internal global i32 0, align 4
@hf_homeplug_av11_nw_info_sta_cpling_rx = internal global i32 0, align 4
@ett_homeplug_av_nw_info_sta_info = internal global i32 0, align 4

; Function Attrs: nounwind uwtable
define internal void @dissect_homeplug_av_nw_info_sta(ptr noundef %0, i32 noundef %1, i32 noundef %2) #0 {
  %4 = alloca ptr, align 8
  %5 = alloca i32, align 4
  %6 = alloca i32, align 4
  %7 = alloca ptr, align 8
  store ptr %0, ptr %4, align 8
  store i32 %1, ptr %5, align 4
  store i32 %2, ptr %6, align 4
  %8 = load ptr, ptr %4, align 8
  %9 = call ptr @ptvcursor_tree(ptr noundef %8)
  %10 = icmp ne ptr %9, null
  br i1 %10, label %12, label %11

11:                                               ; preds = %3
  br label %74

12:                                               ; preds = %3
  %13 = load ptr, ptr %4, align 8
  %14 = load i32, ptr @hf_homeplug_av_nw_info_sta_info, align 4
  %15 = call ptr @ptvcursor_add_no_advance(ptr noundef %13, i32 noundef %14, i32 noundef -1, i32 noundef 0)
  store ptr %15, ptr %7, align 8
  %16 = load ptr, ptr %4, align 8
  %17 = load ptr, ptr %7, align 8
  %18 = load i32, ptr @ett_homeplug_av_nw_info_sta_info, align 4
  %19 = call ptr @ptvcursor_push_subtree(ptr noundef %16, ptr noundef %17, i32 noundef %18)
  %20 = load ptr, ptr %4, align 8
  %21 = load i32, ptr @hf_homeplug_av_nw_info_sta_da, align 4
  %22 = call ptr @ptvcursor_add(ptr noundef %20, i32 noundef %21, i32 noundef 6, i32 noundef 0)
  %23 = load i32, ptr %5, align 4
  %24 = icmp ne i32 %23, 0
  br i1 %24, label %25, label %39

25:                                               ; preds = %12
  %26 = load ptr, ptr %4, align 8
  %27 = load i32, ptr @hf_homeplug_av_nw_info_sta_tei, align 4
  %28 = call ptr @ptvcursor_add(ptr noundef %26, i32 noundef %27, i32 noundef 1, i32 noundef 0)
  %29 = load i32, ptr %6, align 4
  %30 = icmp eq i32 %29, 1
  br i1 %30, label %31, label %35

31:                                               ; preds = %25
  %32 = load ptr, ptr %4, align 8
  %33 = load i32, ptr @hf_homeplug_av_reserved, align 4
  %34 = call ptr @ptvcursor_add(ptr noundef %32, i32 noundef %33, i32 noundef 3, i32 noundef 0)
  br label %35

35:                                               ; preds = %31, %25
  %36 = load ptr, ptr %4, align 8
  %37 = load i32, ptr @hf_homeplug_av_nw_info_sta_bda, align 4
  %38 = call ptr @ptvcursor_add(ptr noundef %36, i32 noundef %37, i32 noundef 6, i32 noundef 0)
  br label %39

39:                                               ; preds = %35, %12
  %40 = load i32, ptr %6, align 4
  %41 = icmp ne i32 %40, 0
  br i1 %41, label %49, label %42

42:                                               ; preds = %39
  %43 = load ptr, ptr %4, align 8
  %44 = load i32, ptr @hf_homeplug_av10_nw_info_sta_phy_dr_tx, align 4
  %45 = call ptr @ptvcursor_add(ptr noundef %43, i32 noundef %44, i32 noundef 1, i32 noundef 0)
  %46 = load ptr, ptr %4, align 8
  %47 = load i32, ptr @hf_homeplug_av10_nw_info_sta_phy_dr_rx, align 4
  %48 = call ptr @ptvcursor_add(ptr noundef %46, i32 noundef %47, i32 noundef 1, i32 noundef 0)
  br label %72

49:                                               ; preds = %39
  %50 = load i32, ptr %6, align 4
  %51 = icmp eq i32 %50, 1
  br i1 %51, label %52, label %71

52:                                               ; preds = %49
  %53 = load ptr, ptr %4, align 8
  %54 = load i32, ptr @hf_homeplug_av11_nw_info_sta_phy_dr_tx, align 4
  %55 = call ptr @ptvcursor_add(ptr noundef %53, i32 noundef %54, i32 noundef 2, i32 noundef -2147483648)
  %56 = load ptr, ptr %4, align 8
  %57 = load i32, ptr @hf_homeplug_av11_nw_info_sta_cpling_tx, align 4
  %58 = call ptr @ptvcursor_add_no_advance(ptr noundef %56, i32 noundef %57, i32 noundef 1, i32 noundef 0)
  %59 = load ptr, ptr %4, align 8
  %60 = load i32, ptr @hf_homeplug_av11_nw_info_sta_cpling_rx, align 4
  %61 = call ptr @ptvcursor_add(ptr noundef %59, i32 noundef %60, i32 noundef 1, i32 noundef 0)
  %62 = load ptr, ptr %4, align 8
  %63 = load i32, ptr @hf_homeplug_av_reserved, align 4
  %64 = call ptr @ptvcursor_add(ptr noundef %62, i32 noundef %63, i32 noundef 1, i32 noundef 0)
  %65 = load ptr, ptr %4, align 8
  %66 = load i32, ptr @hf_homeplug_av11_nw_info_sta_phy_dr_rx, align 4
  %67 = call ptr @ptvcursor_add(ptr noundef %65, i32 noundef %66, i32 noundef 2, i32 noundef -2147483648)
  %68 = load ptr, ptr %4, align 8
  %69 = load i32, ptr @hf_homeplug_av_reserved, align 4
  %70 = call ptr @ptvcursor_add(ptr noundef %68, i32 noundef %69, i32 noundef 2, i32 noundef 0)
  br label %71

71:                                               ; preds = %52, %49
  br label %72

72:                                               ; preds = %71, %42
  %73 = load ptr, ptr %4, align 8
  call void @ptvcursor_pop_subtree(ptr noundef %73)
  br label %74

74:                                               ; preds = %72, %11
  ret void
}