; Function Attrs: nounwind uwtable
define internal fastcc void @dissect_homeplug_av_nw_info_sta(ptr noundef %0, i32 noundef range(i32 0, 2) %1, i32 noundef range(i32 0, 256) %2) unnamed_addr #0 {
  %4 = tail call ptr @ptvcursor_tree(ptr noundef %0) #5
  %.not = icmp eq ptr %4, null
  br i1 %.not, label %40, label %5

5:                                                ; preds = %3
  %6 = load i32, ptr @hf_homeplug_av_nw_info_sta_info, align 4
  %7 = tail call ptr @ptvcursor_add_no_advance(ptr noundef %0, i32 noundef %6, i32 noundef -1, i32 noundef 0) #5
  %8 = load i32, ptr @ett_homeplug_av_nw_info_sta_info, align 4
  %9 = tail call ptr @ptvcursor_push_subtree(ptr noundef %0, ptr noundef %7, i32 noundef %8) #5
  %10 = load i32, ptr @hf_homeplug_av_nw_info_sta_da, align 4
  %11 = tail call ptr @ptvcursor_add(ptr noundef %0, i32 noundef %10, i32 noundef 6, i32 noundef 0) #5
  %.not20 = icmp eq i32 %1, 0
  br i1 %.not20, label %22, label %12

12:                                               ; preds = %5
  %13 = load i32, ptr @hf_homeplug_av_nw_info_sta_tei, align 4
  %14 = tail call ptr @ptvcursor_add(ptr noundef %0, i32 noundef %13, i32 noundef 1, i32 noundef 0) #5
  %15 = icmp eq i32 %2, 1
  br i1 %15, label %16, label %19

16:                                               ; preds = %12
  %17 = load i32, ptr @hf_homeplug_av_reserved, align 4
  %18 = tail call ptr @ptvcursor_add(ptr noundef %0, i32 noundef %17, i32 noundef 3, i32 noundef 0) #5
  br label %19

19:                                               ; preds = %16, %12
  %20 = load i32, ptr @hf_homeplug_av_nw_info_sta_bda, align 4
  %21 = tail call ptr @ptvcursor_add(ptr noundef %0, i32 noundef %20, i32 noundef 6, i32 noundef 0) #5
  br label %22

22:                                               ; preds = %19, %5
  %trunc = trunc nuw i32 %2 to i8
  switch i8 %trunc, label %39 [
    i8 0, label %23
    i8 1, label %26
  ]

23:                                               ; preds = %22
  %24 = load i32, ptr @hf_homeplug_av10_nw_info_sta_phy_dr_tx, align 4
  %25 = tail call ptr @ptvcursor_add(ptr noundef %0, i32 noundef %24, i32 noundef 1, i32 noundef 0) #5
  br label %.sink.split

26:                                               ; preds = %22
  %27 = load i32, ptr @hf_homeplug_av11_nw_info_sta_phy_dr_tx, align 4
  %28 = tail call ptr @ptvcursor_add(ptr noundef %0, i32 noundef %27, i32 noundef 2, i32 noundef -2147483648) #5
  %29 = load i32, ptr @hf_homeplug_av11_nw_info_sta_cpling_tx, align 4
  %30 = tail call ptr @ptvcursor_add_no_advance(ptr noundef %0, i32 noundef %29, i32 noundef 1, i32 noundef 0) #5
  %31 = load i32, ptr @hf_homeplug_av11_nw_info_sta_cpling_rx, align 4
  %32 = tail call ptr @ptvcursor_add(ptr noundef %0, i32 noundef %31, i32 noundef 1, i32 noundef 0) #5
  %33 = load i32, ptr @hf_homeplug_av_reserved, align 4
  %34 = tail call ptr @ptvcursor_add(ptr noundef %0, i32 noundef %33, i32 noundef 1, i32 noundef 0) #5
  %35 = load i32, ptr @hf_homeplug_av11_nw_info_sta_phy_dr_rx, align 4
  %36 = tail call ptr @ptvcursor_add(ptr noundef %0, i32 noundef %35, i32 noundef 2, i32 noundef -2147483648) #5
  br label %.sink.split

.sink.split:                                      ; preds = %23, %26
  %hf_homeplug_av_reserved.sink = phi ptr [ @hf_homeplug_av_reserved, %26 ], [ @hf_homeplug_av10_nw_info_sta_phy_dr_rx, %23 ]
  %.sink22 = phi i32 [ 2, %26 ], [ 1, %23 ]
  %37 = load i32, ptr %hf_homeplug_av_reserved.sink, align 4
  %38 = tail call ptr @ptvcursor_add(ptr noundef %0, i32 noundef %37, i32 noundef %.sink22, i32 noundef 0) #5
  br label %39

39:                                               ; preds = %.sink.split, %22
  tail call void @ptvcursor_pop_subtree(ptr noundef %0) #5
  br label %40

40:                                               ; preds = %3, %39
  ret void
}